	.file	"slp_630.c"
	.text
	.p2align 4
	.globl	f
	.type	f, @function
f:
.LFB0:
	.cfi_startproc
	endbr64
	pushq	%r15
	.cfi_def_cfa_offset 16
	.cfi_offset 15, -16
	pushq	%r14
	.cfi_def_cfa_offset 24
	.cfi_offset 14, -24
	pushq	%r13
	.cfi_def_cfa_offset 32
	.cfi_offset 13, -32
	pushq	%r12
	.cfi_def_cfa_offset 40
	.cfi_offset 12, -40
	pushq	%rbp
	.cfi_def_cfa_offset 48
	.cfi_offset 6, -48
	pushq	%rbx
	.cfi_def_cfa_offset 56
	.cfi_offset 3, -56
	subq	$624, %rsp
	.cfi_def_cfa_offset 680
	movq	88(%rdi), %r15
	movq	32(%rdi), %r11
	movq	112(%rdi), %rax
	movq	80(%rdi), %r12
	movq	104(%rdi), %r13
	movq	24(%rdi), %r14
	movq	%r15, -112(%rsp)
	movq	96(%rdi), %r15
	movq	56(%rdi), %r8
	movq	%r11, -80(%rsp)
	movq	72(%rdi), %r11
	movq	64(%rdi), %rcx
	movq	%r12, -120(%rsp)
	movq	(%rdi), %rbx
	movq	8(%rdi), %rbp
	movq	%r15, -104(%rsp)
	movq	%rax, %r15
	movq	%r11, -72(%rsp)
	movq	40(%rdi), %rax
	movq	8(%rsi), %r11
	movq	%r13, -96(%rsp)
	movq	%rax, %r12
	movq	16(%rdi), %r13
	movq	48(%rdi), %rax
	movq	%r14, -88(%rsp)
	movq	%r11, -64(%rsp)
	movq	(%rsi), %r14
	movq	80(%rsi), %rdi
	movq	88(%rsi), %r9
	movq	%r15, 24(%rsp)
	movq	104(%rsi), %r10
	movq	%r14, %r11
	movq	%r12, 32(%rsp)
	movq	%rdi, -56(%rsp)
	movq	96(%rsi), %rdi
	movq	%r9, -48(%rsp)
	movq	112(%rsi), %r9
	movq	%rdi, -40(%rsp)
	movq	16(%rsi), %rdi
	movq	%r9, -24(%rsp)
	movq	32(%rsi), %r9
	movq	%r10, -32(%rsp)
	movq	24(%rsi), %r10
	movq	%rdi, -16(%rsp)
	movq	40(%rsi), %rdi
	movq	%r10, -8(%rsp)
	movq	64(%rsi), %r10
	movq	%r9, (%rsp)
	movq	56(%rsi), %r9
	movq	%rdi, 8(%rsp)
	movq	48(%rsi), %rdi
	movq	72(%rsi), %rsi
	movq	%rsi, 16(%rsp)
	movq	%rbx, %rsi
	andq	%r14, %rsi
	movq	%r13, %r14
	movq	%rsi, (%rdx)
	movq	-24(%rsp), %rsi
	xorq	%r12, %r14
	movq	%r11, %r12
	xorq	-8(%rsp), %r11
	andq	%r15, %rsi
	movq	%rbp, %r15
	xorq	-80(%rsp), %rbp
	movq	%rbp, 40(%rsp)
	movq	%rsi, 224(%rdx)
	movq	%rbx, %rsi
	xorq	-88(%rsp), %rbx
	movq	%r11, 48(%rsp)
	movq	-64(%rsp), %r11
	xorq	(%rsp), %r11
	movq	-16(%rsp), %rbp
	movq	%r15, 208(%rsp)
	movq	%r11, 56(%rsp)
	movq	8(%rsp), %r11
	movq	%r12, 376(%rsp)
	xorq	%rdi, %r12
	xorq	%rbp, %r11
	xorq	%r10, %rbp
	movq	%r12, 80(%rsp)
	movq	%r11, 64(%rsp)
	movq	%r15, %r11
	movq	-64(%rsp), %r15
	movq	%rbp, 96(%rsp)
	movq	-96(%rsp), %rbp
	xorq	%r8, %r11
	xorq	%r9, %r15
	movq	%rsi, 360(%rsp)
	xorq	%rax, %rsi
	xorq	%r8, %rbp
	movq	%r15, 88(%rsp)
	movq	-104(%rsp), %r15
	movq	%rbp, 112(%rsp)
	movq	24(%rsp), %rbp
	movq	%r15, %r12
	xorq	-72(%rsp), %r15
	movq	%r11, 72(%rsp)
	movq	%r13, %r11
	xorq	%rax, %r12
	xorq	%rcx, %rbp
	movq	%r15, 152(%rsp)
	movq	-96(%rsp), %r15
	movq	%r12, 104(%rsp)
	movq	-32(%rsp), %r12
	xorq	%rcx, %r11
	movq	%rbp, 120(%rsp)
	movq	-40(%rsp), %rbp
	xorq	%r9, %r12
	xorq	%rdi, %rbp
	movq	%r12, 136(%rsp)
	movq	-120(%rsp), %r12
	movq	%rbp, 128(%rsp)
	movq	-24(%rsp), %rbp
	xorq	%r12, %r15
	xorq	%r10, %rbp
	movq	%r15, 240(%rsp)
	movq	-112(%rsp), %r15
	movq	%rbp, 144(%rsp)
	xorq	24(%rsp), %r15
	movq	-40(%rsp), %rbp
	xorq	16(%rsp), %rbp
	movq	%rsi, 224(%rsp)
	movq	%rbp, 168(%rsp)
	movq	-56(%rsp), %rbp
	xorq	-32(%rsp), %rbp
	movq	%r15, 160(%rsp)
	movq	%rbp, 176(%rsp)
	movq	-72(%rsp), %rbp
	movq	%r11, 232(%rsp)
	movq	-48(%rsp), %r15
	xorq	%rsi, %rbp
	movq	72(%rsp), %rsi
	xorq	-24(%rsp), %r15
	movq	%rbp, 392(%rsp)
	xorq	%r12, %rsi
	movq	-112(%rsp), %r12
	movq	%r15, 184(%rsp)
	movq	%rsi, 248(%rsp)
	movq	16(%rsp), %rsi
	xorq	%r11, %r12
	xorq	80(%rsp), %rsi
	movq	%rsi, %r11
	movq	%r12, 256(%rsp)
	movq	-48(%rsp), %rsi
	movq	-56(%rsp), %r12
	xorq	88(%rsp), %r12
	movq	%r11, 400(%rsp)
	xorq	96(%rsp), %rsi
	andq	%r11, %rbp
	movq	%r12, 264(%rsp)
	movq	%rsi, 272(%rsp)
	movq	-88(%rsp), %rsi
	xorq	104(%rsp), %rsi
	movq	%rbp, 408(%rsp)
	movq	%rsi, 280(%rsp)
	movq	-80(%rsp), %r11
	movq	32(%rsp), %rbp
	movq	8(%rsp), %rsi
	movq	%r14, 216(%rsp)
	xorq	144(%rsp), %rsi
	xorq	120(%rsp), %rbp
	movq	%rbp, 416(%rsp)
	movq	(%rsp), %r12
	andq	%rsi, %rbp
	xorq	136(%rsp), %r12
	movq	%rbp, 560(%rsp)
	movq	%r12, 304(%rsp)
	movq	40(%rsp), %rbp
	movq	240(%rsp), %r12
	xorq	112(%rsp), %r11
	movq	%rsi, 424(%rsp)
	movq	%r11, 288(%rsp)
	movq	-8(%rsp), %r11
	xorq	%r12, %rbp
	xorq	128(%rsp), %r11
	movq	56(%rsp), %r15
	movq	%rbp, %rsi
	movq	%r11, 296(%rsp)
	movq	160(%rsp), %rbp
	movq	152(%rsp), %r11
	xorq	176(%rsp), %r15
	xorq	%r14, %rbp
	movq	%r15, 192(%rsp)
	movq	48(%rsp), %r14
	xorq	%rbx, %r11
	xorq	168(%rsp), %r14
	movq	64(%rsp), %r15
	xorq	184(%rsp), %r15
	movq	%r14, 320(%rsp)
	movq	%r15, 200(%rsp)
	movq	%r11, %r15
	andq	%r14, %r11
	movq	200(%rsp), %r14
	movq	%r11, 576(%rsp)
	movq	%rbp, %r11
	andq	%rbp, %r14
	xorq	%rcx, %r11
	movq	%r14, 440(%rsp)
	movq	%r15, %r14
	xorq	%rax, %r14
	movq	%r15, 432(%rsp)
	movq	%r14, %r15
	movq	%rsi, %r14
	movq	%rsi, 312(%rsp)
	movq	320(%rsp), %rsi
	xorq	%r8, %r14
	movq	%r15, 448(%rsp)
	movq	%r14, 328(%rsp)
	movq	192(%rsp), %r14
	xorq	%rdi, %rsi
	movq	%r13, 368(%rsp)
	andq	-64(%rsp), %r13
	xorq	%r9, %r14
	movq	%rsi, 456(%rsp)
	movq	%r14, 336(%rsp)
	movq	200(%rsp), %r14
	movq	%rbp, 568(%rsp)
	xorq	%r10, %r14
	movq	%r14, 344(%rsp)
	movq	%r15, %r14
	movq	%r11, %r15
	andq	%rsi, %r14
	movq	%r13, %rsi
	movq	%r15, 584(%rsp)
	movq	%r14, 464(%rsp)
	movq	344(%rsp), %r14
	andq	%r14, %r11
	movq	%r11, 472(%rsp)
	movq	208(%rsp), %r11
	andq	-16(%rsp), %r11
	movq	%r11, %r13
	movq	288(%rsp), %r11
	andq	424(%rsp), %r11
	xorq	%rsi, %r13
	movq	%r13, 480(%rsp)
	movq	416(%rsp), %r13
	andq	304(%rsp), %r13
	movq	%r13, %rsi
	movq	%r11, %r13
	xorq	%rsi, %r13
	movq	%r13, 488(%rsp)
	movq	312(%rsp), %r13
	andq	200(%rsp), %r13
	movq	%r13, %r11
	movq	192(%rsp), %r13
	andq	%rbp, %r13
	movq	%r13, %rsi
	movq	%r11, %r13
	movq	328(%rsp), %r11
	xorq	%rsi, %r13
	movq	336(%rsp), %rsi
	andq	%r14, %r11
	movq	%r13, 496(%rsp)
	andq	%r15, %rsi
	movq	%r11, %r13
	xorq	%rsi, %r13
	movq	%r13, 504(%rsp)
	movq	-96(%rsp), %r13
	andq	-24(%rsp), %r13
	movq	-120(%rsp), %rbp
	movq	%rbx, 384(%rsp)
	movq	%r13, %r11
	movq	24(%rsp), %r13
	andq	-32(%rsp), %r13
	movq	%r13, %rsi
	movq	%r11, %r13
	andq	-48(%rsp), %rbp
	andq	48(%rsp), %rbx
	xorq	%rsi, %r13
	movq	-112(%rsp), %rsi
	andq	-56(%rsp), %rsi
	movq	%r13, %r14
	movq	480(%rsp), %r13
	xorq	(%rdx), %r13
	xorq	%rsi, %rbp
	movq	%r13, 512(%rsp)
	movq	184(%rsp), %rsi
	movq	-104(%rsp), %r13
	andq	-40(%rsp), %r13
	movq	%r14, 592(%rsp)
	xorq	%r14, %r13
	movq	-88(%rsp), %r14
	andq	-8(%rsp), %r14
	andq	%r12, %rsi
	xorq	512(%rsp), %r14
	movq	160(%rsp), %r11
	xorq	%r13, %rbp
	andq	176(%rsp), %r11
	xorq	%r14, %rbx
	xorq	%r11, %rsi
	movq	%rbx, 24(%rdx)
	movq	%r8, %rbx
	andq	%r10, %rbx
	movq	%rsi, %r15
	xorq	%rbp, %r15
	movq	%rbx, %r11
	movq	%rcx, %rbx
	andq	%r9, %rbx
	movq	%r15, 192(%rdx)
	movq	-80(%rsp), %r15
	andq	8(%rsp), %r15
	xorq	%r11, %rbx
	movq	-72(%rsp), %r11
	movq	%r15, %rsi
	andq	16(%rsp), %r11
	movq	32(%rsp), %r15
	andq	(%rsp), %r15
	xorq	%r11, %rbx
	movq	%r15, %r11
	movq	%rax, %r15
	andq	%rdi, %r15
	xorq	%rsi, %r11
	xorq	%r15, %r11
	movq	40(%rsp), %r15
	andq	64(%rsp), %r15
	movq	216(%rsp), %rsi
	andq	56(%rsp), %rsi
	xorq	%r15, %rsi
	movq	224(%rsp), %r15
	andq	80(%rsp), %r15
	xorq	%r15, %rsi
	xorq	%r11, %rsi
	movq	%rsi, %r15
	xorq	%r14, %r15
	movq	112(%rsp), %r14
	andq	144(%rsp), %r14
	movq	%r15, 48(%rdx)
	movq	120(%rsp), %r15
	andq	136(%rsp), %r15
	movq	%r15, %rsi
	movq	248(%rsp), %r15
	xorq	%r14, %rsi
	movq	152(%rsp), %r14
	andq	168(%rsp), %r14
	xorq	%r14, %rsi
	xorq	%rbx, %rsi
	movq	%rsi, %r14
	xorq	%rbp, %r14
	movq	272(%rsp), %rbp
	movq	%r14, 168(%rdx)
	movq	256(%rsp), %r14
	andq	264(%rsp), %r14
	andq	%r15, %rbp
	movq	%r14, %rsi
	movq	504(%rsp), %r14
	xorq	%rbp, %rsi
	movq	280(%rsp), %rbp
	andq	296(%rsp), %rbp
	xorq	%rbp, %rsi
	xorq	464(%rsp), %rsi
	xorq	%rsi, %r14
	movq	%r14, 520(%rsp)
	movq	72(%rsp), %r14
	andq	96(%rsp), %r14
	movq	%r14, %rbp
	movq	232(%rsp), %r14
	andq	88(%rsp), %r14
	movq	%r14, %rsi
	xorq	%rbp, %rsi
	movq	104(%rsp), %rbp
	andq	128(%rsp), %rbp
	xorq	%rbp, %rsi
	xorq	%r13, %rsi
	xorq	%rbx, %rsi
	movq	%rsi, %rbx
	xorq	%r11, %rbx
	movq	%rbx, 600(%rsp)
	movq	392(%rsp), %rbx
	andq	264(%rsp), %rbx
	movq	%rbx, %r11
	movq	400(%rsp), %rbx
	andq	%r15, %rbx
	movq	%rbx, %rsi
	movq	%r11, %rbx
	xorq	%rsi, %rbx
	movq	%rbx, 608(%rsp)
	movq	432(%rsp), %rbp
	movq	312(%rsp), %rbx
	andq	192(%rsp), %rbp
	andq	320(%rsp), %rbx
	movq	360(%rsp), %r13
	movq	%rbx, %rsi
	movq	%rbp, %rbx
	andq	-64(%rsp), %r13
	movq	448(%rsp), %r14
	xorq	%rsi, %rbx
	movq	-104(%rsp), %r11
	andq	-32(%rsp), %r11
	movq	%rbx, 528(%rsp)
	movq	208(%rsp), %rbx
	andq	376(%rsp), %rbx
	andq	336(%rsp), %r14
	movq	%rbx, %rsi
	movq	%r13, %rbx
	movq	-96(%rsp), %r15
	andq	-40(%rsp), %r15
	xorq	%rsi, %rbx
	movq	%rbx, 352(%rsp)
	movq	328(%rsp), %rbx
	andq	456(%rsp), %rbx
	movq	352(%rsp), %r13
	movq	%rbx, %rsi
	movq	%r14, %rbx
	xorq	%rsi, %rbx
	movq	384(%rsp), %rsi
	andq	56(%rsp), %rsi
	movq	%rbx, 536(%rsp)
	movq	%r11, %rbx
	movq	40(%rsp), %r11
	xorq	%r15, %rbx
	movq	%rbx, %rbp
	movq	368(%rsp), %rbx
	andq	-16(%rsp), %rbx
	xorq	%rbx, %r13
	movq	224(%rdx), %rbx
	movq	%rbp, 616(%rsp)
	xorq	%rbp, %rbx
	movq	%rbx, 544(%rsp)
	movq	-88(%rsp), %rbx
	andq	(%rsp), %rbx
	movq	%rbx, %rbp
	movq	-80(%rsp), %rbx
	andq	-8(%rsp), %rbx
	andq	48(%rsp), %r11
	xorq	%rbx, %rbp
	movq	544(%rsp), %r14
	xorq	%r11, %rsi
	xorq	%r13, %rbp
	movq	160(%rsp), %rbx
	andq	184(%rsp), %rbx
	movq	%rsi, %r15
	movq	%rbx, %r11
	movq	%rax, %rsi
	movq	32(%rsp), %rbx
	xorq	%rbp, %r15
	andq	8(%rsp), %rbx
	andq	%r9, %rsi
	movq	%r15, 32(%rdx)
	movq	-112(%rsp), %r15
	andq	-48(%rsp), %r15
	xorq	%r15, %r14
	movq	-72(%rsp), %r15
	xorq	%r14, %r11
	movq	%r11, 200(%rdx)
	movq	%rbx, %r11
	movq	%rsi, %rbx
	movq	%rcx, %rsi
	xorq	%r11, %rbx
	movq	%r8, %r11
	andq	%rdi, %r11
	xorq	%r11, %rbx
	andq	-56(%rsp), %r15
	andq	%r10, %rsi
	andq	168(%rsp), %r12
	movq	%r15, %r11
	movq	-120(%rsp), %r15
	andq	16(%rsp), %r15
	xorq	%rsi, %r11
	movq	152(%rsp), %rsi
	andq	176(%rsp), %rsi
	xorq	%r15, %r11
	movq	120(%rsp), %r15
	andq	144(%rsp), %r15
	xorq	%r15, %rsi
	movq	72(%rsp), %r15
	andq	80(%rsp), %r15
	xorq	%r12, %rsi
	xorq	%r11, %rsi
	movq	%rsi, %r12
	movq	224(%rsp), %rsi
	andq	88(%rsp), %rsi
	xorq	%r14, %r12
	movq	216(%rsp), %r14
	andq	64(%rsp), %r14
	xorq	%r14, %rsi
	movq	%r12, 176(%rdx)
	xorq	%r15, %rsi
	xorq	%rbx, %rsi
	movq	%rsi, %r12
	xorq	%rbp, %r12
	movq	%r12, %r15
	movq	256(%rsp), %r12
	andq	272(%rsp), %r12
	movq	%r12, %rbp
	movq	280(%rsp), %r12
	andq	304(%rsp), %r12
	movq	%r12, %rsi
	movq	288(%rsp), %r12
	andq	296(%rsp), %r12
	xorq	%rbp, %rsi
	xorq	%r12, %rsi
	xorq	472(%rsp), %rsi
	movq	112(%rsp), %r12
	movq	536(%rsp), %r14
	movq	232(%rsp), %rbp
	andq	96(%rsp), %rbp
	andq	128(%rsp), %r12
	xorq	%rsi, %r14
	movq	%r14, 552(%rsp)
	movq	104(%rsp), %r14
	andq	136(%rsp), %r14
	movq	%r14, %rsi
	movq	-96(%rsp), %r14
	xorq	%rbp, %rsi
	xorq	%r12, %rsi
	xorq	%r13, %rsi
	andq	-32(%rsp), %r14
	andq	%r9, %r8
	andq	%r10, %rax
	xorq	%rbx, %rsi
	movq	208(%rsp), %r13
	andq	-64(%rsp), %r13
	andq	%rdi, %rcx
	movq	%rsi, %r12
	xorq	%r8, %rax
	xorq	%r11, %r12
	xorq	%rcx, %rax
	movq	-72(%rsp), %rcx
	andq	-48(%rsp), %rcx
	movq	%r12, %rbx
	movq	-16(%rsp), %r12
	andq	360(%rsp), %r12
	xorq	%r13, %r12
	movq	368(%rsp), %r13
	andq	376(%rsp), %r13
	xorq	%r13, %r12
	movq	-104(%rsp), %r13
	andq	-24(%rsp), %r13
	movq	%r13, %rsi
	movq	-88(%rsp), %r13
	andq	8(%rsp), %r13
	xorq	%r14, %rsi
	movq	24(%rsp), %r14
	andq	-40(%rsp), %r14
	movq	%r14, %r11
	movq	%rsi, %r14
	movq	%r13, %rsi
	movq	-120(%rsp), %r13
	xorq	%r11, %r14
	andq	-56(%rsp), %r13
	movq	-80(%rsp), %r11
	andq	(%rsp), %r11
	xorq	%r13, %rcx
	movq	-112(%rsp), %r13
	xorq	%r11, %rsi
	movq	32(%rsp), %r11
	andq	-8(%rsp), %r11
	andq	16(%rsp), %r13
	movq	448(%rsp), %rdi
	xorq	%rsi, %r11
	xorq	%r13, %rcx
	xorq	%r12, %r11
	movq	104(%rsp), %r10
	movq	112(%rsp), %r8
	andq	344(%rsp), %rdi
	xorq	%r14, %rcx
	movq	584(%rsp), %r9
	movq	%rdi, %rsi
	movq	328(%rsp), %rdi
	andq	336(%rsp), %rdi
	xorq	%rsi, %rdi
	andq	144(%rsp), %r10
	andq	136(%rsp), %r8
	movq	%r10, %rsi
	andq	456(%rsp), %r9
	movq	240(%rsp), %r10
	xorq	%r8, %rsi
	movq	120(%rsp), %r8
	xorq	%r9, %rdi
	andq	128(%rsp), %r8
	xorq	%r8, %rsi
	andq	176(%rsp), %r10
	movq	%rsi, %r9
	xorq	%rax, %r9
	movq	%r9, %r13
	movq	152(%rsp), %r9
	andq	184(%rsp), %r9
	movq	%r9, %rsi
	movq	160(%rsp), %r9
	xorq	%rcx, %r13
	andq	168(%rsp), %r9
	xorq	%r10, %rsi
	movq	216(%rsp), %r10
	andq	48(%rsp), %r10
	xorq	%r9, %rsi
	movq	40(%rsp), %r9
	andq	56(%rsp), %r9
	xorq	%rsi, %rcx
	movq	384(%rsp), %rsi
	andq	64(%rsp), %rsi
	xorq	%rsi, %r9
	xorq	%r10, %r9
	movq	392(%rsp), %r10
	andq	272(%rsp), %r10
	movq	%r10, %rsi
	movq	248(%rsp), %r10
	xorq	%r11, %r9
	andq	264(%rsp), %r10
	movq	%r10, %rbp
	movq	256(%rsp), %r10
	andq	400(%rsp), %r10
	xorq	%rsi, %rbp
	movq	224(%rsp), %rsi
	andq	96(%rsp), %rsi
	movq	72(%rsp), %r8
	andq	88(%rsp), %r8
	xorq	%r10, %rbp
	xorq	%rsi, %r8
	movq	232(%rsp), %rsi
	andq	80(%rsp), %rsi
	xorq	%rdi, %rbp
	movq	280(%rsp), %r10
	xorq	%rsi, %r8
	andq	424(%rsp), %r10
	movq	288(%rsp), %rsi
	andq	304(%rsp), %rsi
	xorq	%r8, %rax
	xorq	%r10, %rsi
	movq	416(%rsp), %r10
	andq	296(%rsp), %r10
	xorq	%r11, %rax
	xorq	%rsi, %r10
	movq	312(%rsp), %r8
	movq	432(%rsp), %rsi
	andq	192(%rsp), %r8
	andq	200(%rsp), %rsi
	xorq	%r8, %rsi
	movq	568(%rsp), %r8
	andq	320(%rsp), %r8
	xorq	%rsi, %r8
	movq	352(%rsp), %rsi
	movq	608(%rsp), %r11
	movq	%rsi, 8(%rdx)
	movq	528(%rsp), %rsi
	xorq	%r11, %rsi
	xorq	616(%rsp), %rsi
	xorq	536(%rsp), %rsi
	xorq	%rbx, %rsi
	xorq	440(%rsp), %r11
	movq	%rsi, 80(%rdx)
	movq	%r12, %rsi
	xorq	%r8, %rsi
	xorq	%r13, %rsi
	xorq	%rbp, %rsi
	movq	%rsi, 88(%rdx)
	movq	408(%rsp), %rsi
	xorq	496(%rsp), %rsi
	xorq	24(%rdx), %rsi
	xorq	168(%rdx), %rsi
	xorq	520(%rsp), %rsi
	movq	%rsi, 96(%rdx)
	movq	32(%rdx), %rsi
	movq	%r12, 16(%rdx)
	xorq	%r11, %rsi
	movq	%rcx, %r11
	xorq	176(%rdx), %rsi
	xorq	552(%rsp), %rsi
	xorq	%r9, %r11
	movq	%rsi, 104(%rdx)
	movq	%r11, %rsi
	movq	576(%rsp), %r11
	movq	%r13, 160(%rdx)
	xorq	%r10, %rsi
	movq	%r14, 208(%rdx)
	xorq	%rsi, %rbp
	movq	488(%rsp), %rsi
	movq	%rcx, 184(%rdx)
	movq	%rbp, 112(%rdx)
	movq	560(%rsp), %rbp
	xorq	%r11, %rsi
	xorq	192(%rdx), %rsi
	xorq	48(%rdx), %rsi
	xorq	%r8, %r10
	xorq	520(%rsp), %rsi
	movq	%r10, %r8
	movq	440(%rsp), %r10
	movq	%rsi, 120(%rdx)
	movq	528(%rsp), %rsi
	xorq	%r14, %r8
	xorq	%rbp, %r10
	xorq	%rbp, %rsi
	xorq	200(%rdx), %rsi
	xorq	%r15, %rsi
	xorq	552(%rsp), %rsi
	movq	%rsi, 128(%rdx)
	movq	%r8, %rsi
	movq	488(%rsp), %r8
	xorq	%rdi, %rsi
	xorq	496(%rsp), %r8
	xorq	%rax, %rsi
	movq	%rsi, 136(%rdx)
	movq	480(%rsp), %rsi
	xorq	%r8, %rsi
	movq	600(%rsp), %r8
	xorq	504(%rsp), %rsi
	xorq	%r8, %rsi
	movq	%rsi, 144(%rdx)
	movq	352(%rsp), %rsi
	xorq	%r10, %rsi
	xorq	544(%rsp), %rsi
	xorq	472(%rsp), %rsi
	xorq	%rbx, %rsi
	movq	%rsi, 152(%rdx)
	movq	592(%rsp), %rcx
	movq	408(%rsp), %rsi
	movq	%r15, 56(%rdx)
	movq	%rcx, 216(%rdx)
	xorq	%r11, %rsi
	movq	%r9, 40(%rdx)
	xorq	%rcx, %rsi
	xorq	512(%rsp), %rsi
	movq	%rax, 64(%rdx)
	xorq	464(%rsp), %rsi
	xorq	%r8, %rsi
	movq	%rsi, 72(%rdx)
	addq	$624, %rsp
	.cfi_def_cfa_offset 56
	popq	%rbx
	.cfi_def_cfa_offset 48
	popq	%rbp
	.cfi_def_cfa_offset 40
	popq	%r12
	.cfi_def_cfa_offset 32
	popq	%r13
	.cfi_def_cfa_offset 24
	popq	%r14
	.cfi_def_cfa_offset 16
	popq	%r15
	.cfi_def_cfa_offset 8
	ret
	.cfi_endproc
.LFE0:
	.size	f, .-f
	.ident	"GCC: (Ubuntu 9.4.0-1ubuntu1~20.04.1) 9.4.0"
	.section	.note.GNU-stack,"",@progbits
	.section	.note.gnu.property,"a"
	.align 8
	.long	 1f - 0f
	.long	 4f - 1f
	.long	 5
0:
	.string	 "GNU"
1:
	.align 8
	.long	 0xc0000002
	.long	 3f - 2f
2:
	.long	 0x3
3:
	.align 8
4:
